#include <math.h>
#include <stdio.h>
#include <stdlib.h>
#include <string.h>

int main(){
	int n,m=0,a=0;
	scanf("%d",&n);
	while(n!=a){
		a=n%10;
		if(a==n)
			break;
		else{
			m=m*10+a*10;
		}
		n=n/10;
	}
	m=m+a;
	printf("%d",m);
	return 0;
}
